; Function Attrs: mustprogress uwtable
define hidden void @_ZN2cv11JpegEncoderC2Ev(ptr noundef nonnull align 8 dereferenceable(120) %0) unnamed_addr #3 align 2 personality ptr @__gxx_personality_v0 {
  tail call void @_ZN2cv16BaseImageEncoderC2Ev(ptr noundef nonnull align 8 dereferenceable(120) %0)
  store ptr getelementptr inbounds nuw inrange(-16, 88) (i8, ptr @_ZTVN2cv11JpegEncoderE, i64 16), ptr %0, align 8, !tbaa !3
  %2 = getelementptr inbounds nuw i8, ptr %0, i64 8
  %3 = getelementptr inbounds nuw i8, ptr %0, i64 16
  %4 = load i64, ptr %3, align 8, !tbaa !6
  %5 = invoke noundef nonnull align 8 dereferenceable(32) ptr @_ZNSt7__cxx1112basic_stringIcSt11char_traitsIcESaIcEE10_M_replaceEmmPKcm(ptr noundef nonnull align 8 dereferenceable(32) %2, i64 noundef 0, i64 noundef %4, ptr noundef nonnull @.str.2, i64 noundef 31)
          to label %_ZNSt7__cxx1112basic_stringIcSt11char_traitsIcESaIcEEaSEPKc.exit unwind label %7

_ZNSt7__cxx1112basic_stringIcSt11char_traitsIcESaIcEEaSEPKc.exit: ; preds = %1
  %6 = getelementptr inbounds nuw i8, ptr %0, i64 80
  store i8 1, ptr %6, align 8, !tbaa !155
  ret void

7:                                                ; preds = %1
  %8 = landingpad { ptr, i32 }
          cleanup
  tail call void @_ZN2cv16BaseImageEncoderD2Ev(ptr noundef nonnull align 8 dereferenceable(120) %0) #24
  resume { ptr, i32 } %8
}